; Function Attrs: mustprogress uwtable
define dso_local noundef zeroext i1 @_ZN42cmInstallImportedRuntimeArtifactsGenerator7ComputeEP16cmLocalGenerator(ptr noundef nonnull align 8 dereferenceable(273) %0, ptr noundef nonnull %1) unnamed_addr #4 align 2 {
  %3 = getelementptr inbounds i8, ptr %0, i64 200
  %4 = tail call noundef ptr @_ZNK16cmLocalGenerator24FindGeneratorTargetToUseERKNSt7__cxx1112basic_stringIcSt11char_traitsIcESaIcEEE(ptr noundef nonnull align 8 dereferenceable(824) %1, ptr noundef nonnull align 8 dereferenceable(32) %3)
  %5 = getelementptr inbounds i8, ptr %0, i64 232
  store ptr %4, ptr %5, align 8
  %.not = icmp eq ptr %4, null
  br i1 %.not, label %8, label %6

6:                                                ; preds = %2
  %7 = tail call noundef zeroext i1 @_ZNK17cmGeneratorTarget10IsImportedEv(ptr noundef nonnull align 8 dereferenceable(2728) %4)
  br i1 %7, label %12, label %8

8:                                                ; preds = %6, %2
  %9 = getelementptr inbounds i8, ptr %1, i64 136
  %10 = load ptr, ptr %9, align 8
  %11 = tail call noundef ptr @_ZNK17cmGlobalGenerator19FindGeneratorTargetERKNSt7__cxx1112basic_stringIcSt11char_traitsIcESaIcEEE(ptr noundef nonnull align 8 dereferenceable(1778) %10, ptr noundef nonnull align 8 dereferenceable(32) %3)
  store ptr %11, ptr %5, align 8
  br label %12

12:                                               ; preds = %8, %6
  ret i1 true
}